; Function Attrs: mustprogress uwtable
define noundef ptr @_ZNK6google8protobuf8internal12ExtensionSet41SerializeMessageSetWithCachedSizesToArrayEPKNS0_11MessageLiteEPh(ptr noundef nonnull align 8 dereferenceable(24) %this, ptr noundef %extendee, ptr noundef %target) local_unnamed_addr #3 align 2 {
entry:
  %stream = alloca %"class.google::protobuf::io::EpsCopyOutputStream", align 8
  %call = tail call noundef i64 @_ZNK6google8protobuf8internal12ExtensionSet18MessageSetByteSizeEv(ptr noundef nonnull align 8 dereferenceable(24) %this)
  %0 = load atomic i8, ptr @_ZN6google8protobuf2io17CodedOutputStream36default_serialization_deterministic_E monotonic, align 1
  %frombool.i = and i8 %0, 1
  %sext = shl i64 %call, 32
  %idx.ext.i = ashr exact i64 %sext, 32
  %add.ptr.i = getelementptr inbounds i8, ptr %target, i64 %idx.ext.i
  store ptr %add.ptr.i, ptr %stream, align 8
  %buffer_end_.i = getelementptr inbounds nuw i8, ptr %stream, i64 8
  store ptr null, ptr %buffer_end_.i, align 8
  %stream_.i = getelementptr inbounds nuw i8, ptr %stream, i64 48
  store ptr null, ptr %stream_.i, align 8
  %had_error_.i = getelementptr inbounds nuw i8, ptr %stream, i64 56
  store i8 0, ptr %had_error_.i, align 8
  %aliasing_enabled_.i = getelementptr inbounds nuw i8, ptr %stream, i64 57
  store i8 0, ptr %aliasing_enabled_.i, align 1
  %is_serialization_deterministic_.i = getelementptr inbounds nuw i8, ptr %stream, i64 58
  store i8 %frombool.i, ptr %is_serialization_deterministic_.i, align 2
  %skip_check_consistency.i = getelementptr inbounds nuw i8, ptr %stream, i64 59
  store i8 0, ptr %skip_check_consistency.i, align 1
  %call3 = call noundef ptr @_ZNK6google8protobuf8internal12ExtensionSet49InternalSerializeMessageSetWithCachedSizesToArrayEPKNS0_11MessageLiteEPhPNS0_2io19EpsCopyOutputStreamE(ptr noundef nonnull align 8 dereferenceable(24) %this, ptr noundef %extendee, ptr noundef %target, ptr noundef nonnull %stream)
  ret ptr %call3
}